; ModuleID = '51/271.c'
source_filename = "51/271.c"
target datalayout = "e-m:e-p270:32:32-p271:32:32-p272:64:64-i64:64-f80:128-n8:16:32:64-S128"
target triple = "x86_64-pc-linux-gnu"

%struct.anon = type { [10 x i8], i32 }

@.str = private unnamed_addr constant [3 x i8] c"%d\00", align 1
@.str.1 = private unnamed_addr constant [3 x i8] c"%s\00", align 1
@ngram = common dso_local global [500 x %struct.anon] zeroinitializer, align 16
@.str.2 = private unnamed_addr constant [3 x i8] c"NO\00", align 1
@.str.3 = private unnamed_addr constant [4 x i8] c"%d\0A\00", align 1
@.str.4 = private unnamed_addr constant [4 x i8] c"%s\0A\00", align 1

; Function Attrs: noinline nounwind uwtable
define dso_local void @main() #0 {
  %1 = alloca i32, align 4
  %2 = alloca i32, align 4
  %3 = alloca i32, align 4
  %4 = alloca i32, align 4
  %5 = alloca i32, align 4
  %6 = alloca [510 x i8], align 16
  %7 = alloca i32, align 4
  %8 = call i32 (i8*, ...) @__isoc99_scanf(i8* getelementptr inbounds ([3 x i8], [3 x i8]* @.str, i64 0, i64 0), i32* %1)
  %9 = getelementptr inbounds [510 x i8], [510 x i8]* %6, i64 0, i64 0
  %10 = call i32 (i8*, ...) @__isoc99_scanf(i8* getelementptr inbounds ([3 x i8], [3 x i8]* @.str.1, i64 0, i64 0), i8* %9)
  %11 = getelementptr inbounds [510 x i8], [510 x i8]* %6, i64 0, i64 0
  %12 = call i64 @strlen(i8* %11) #3
  %13 = trunc i64 %12 to i32
  store i32 %13, i32* %3, align 4
  %14 = load i32, i32* %3, align 4
  %15 = load i32, i32* %1, align 4
  %16 = sub nsw i32 %14, %15
  %17 = add nsw i32 %16, 1
  store i32 %17, i32* %2, align 4
  store i32 0, i32* %4, align 4
  br label %18

18:                                               ; preds = %48, %0
  %19 = load i32, i32* %4, align 4
  %20 = load i32, i32* %3, align 4
  %21 = load i32, i32* %1, align 4
  %22 = sub nsw i32 %20, %21
  %23 = add nsw i32 %22, 1
  %24 = icmp slt i32 %19, %23
  br i1 %24, label %25, label %51

25:                                               ; preds = %18
  store i32 0, i32* %5, align 4
  br label %26

26:                                               ; preds = %44, %25
  %27 = load i32, i32* %5, align 4
  %28 = load i32, i32* %1, align 4
  %29 = icmp slt i32 %27, %28
  br i1 %29, label %30, label %47

30:                                               ; preds = %26
  %31 = load i32, i32* %4, align 4
  %32 = load i32, i32* %5, align 4
  %33 = add nsw i32 %31, %32
  %34 = sext i32 %33 to i64
  %35 = getelementptr inbounds [510 x i8], [510 x i8]* %6, i64 0, i64 %34
  %36 = load i8, i8* %35, align 1
  %37 = load i32, i32* %4, align 4
  %38 = sext i32 %37 to i64
  %39 = getelementptr inbounds [500 x %struct.anon], [500 x %struct.anon]* @ngram, i64 0, i64 %38
  %40 = getelementptr inbounds %struct.anon, %struct.anon* %39, i32 0, i32 0
  %41 = load i32, i32* %5, align 4
  %42 = sext i32 %41 to i64
  %43 = getelementptr inbounds [10 x i8], [10 x i8]* %40, i64 0, i64 %42
  store i8 %36, i8* %43, align 1
  br label %44

44:                                               ; preds = %30
  %45 = load i32, i32* %5, align 4
  %46 = add nsw i32 %45, 1
  store i32 %46, i32* %5, align 4
  br label %26

47:                                               ; preds = %26
  br label %48

48:                                               ; preds = %47
  %49 = load i32, i32* %4, align 4
  %50 = add nsw i32 %49, 1
  store i32 %50, i32* %4, align 4
  br label %18

51:                                               ; preds = %18
  store i32 0, i32* %4, align 4
  br label %52

52:                                               ; preds = %61, %51
  %53 = load i32, i32* %4, align 4
  %54 = load i32, i32* %2, align 4
  %55 = icmp slt i32 %53, %54
  br i1 %55, label %56, label %64

56:                                               ; preds = %52
  %57 = load i32, i32* %4, align 4
  %58 = sext i32 %57 to i64
  %59 = getelementptr inbounds [500 x %struct.anon], [500 x %struct.anon]* @ngram, i64 0, i64 %58
  %60 = getelementptr inbounds %struct.anon, %struct.anon* %59, i32 0, i32 1
  store i32 1, i32* %60, align 4
  br label %61

61:                                               ; preds = %56
  %62 = load i32, i32* %4, align 4
  %63 = add nsw i32 %62, 1
  store i32 %63, i32* %4, align 4
  br label %52

64:                                               ; preds = %52
  store i32 0, i32* %4, align 4
  br label %65

65:                                               ; preds = %105, %64
  %66 = load i32, i32* %4, align 4
  %67 = load i32, i32* %2, align 4
  %68 = icmp slt i32 %66, %67
  br i1 %68, label %69, label %108

69:                                               ; preds = %65
  %70 = load i32, i32* %4, align 4
  %71 = add nsw i32 %70, 1
  store i32 %71, i32* %5, align 4
  br label %72

72:                                               ; preds = %101, %69
  %73 = load i32, i32* %5, align 4
  %74 = load i32, i32* %2, align 4
  %75 = icmp slt i32 %73, %74
  br i1 %75, label %76, label %104

76:                                               ; preds = %72
  %77 = load i32, i32* %4, align 4
  %78 = sext i32 %77 to i64
  %79 = getelementptr inbounds [500 x %struct.anon], [500 x %struct.anon]* @ngram, i64 0, i64 %78
  %80 = getelementptr inbounds %struct.anon, %struct.anon* %79, i32 0, i32 0
  %81 = getelementptr inbounds [10 x i8], [10 x i8]* %80, i64 0, i64 0
  %82 = load i32, i32* %5, align 4
  %83 = sext i32 %82 to i64
  %84 = getelementptr inbounds [500 x %struct.anon], [500 x %struct.anon]* @ngram, i64 0, i64 %83
  %85 = getelementptr inbounds %struct.anon, %struct.anon* %84, i32 0, i32 0
  %86 = getelementptr inbounds [10 x i8], [10 x i8]* %85, i64 0, i64 0
  %87 = call i32 @strcmp(i8* %81, i8* %86) #3
  %88 = icmp eq i32 %87, 0
  br i1 %88, label %89, label %100

89:                                               ; preds = %76
  %90 = load i32, i32* %4, align 4
  %91 = sext i32 %90 to i64
  %92 = getelementptr inbounds [500 x %struct.anon], [500 x %struct.anon]* @ngram, i64 0, i64 %91
  %93 = getelementptr inbounds %struct.anon, %struct.anon* %92, i32 0, i32 1
  %94 = load i32, i32* %93, align 4
  %95 = add nsw i32 %94, 1
  store i32 %95, i32* %93, align 4
  %96 = load i32, i32* %5, align 4
  %97 = sext i32 %96 to i64
  %98 = getelementptr inbounds [500 x %struct.anon], [500 x %struct.anon]* @ngram, i64 0, i64 %97
  %99 = getelementptr inbounds %struct.anon, %struct.anon* %98, i32 0, i32 1
  store i32 0, i32* %99, align 4
  br label %100

100:                                              ; preds = %89, %76
  br label %101

101:                                              ; preds = %100
  %102 = load i32, i32* %5, align 4
  %103 = add nsw i32 %102, 1
  store i32 %103, i32* %5, align 4
  br label %72

104:                                              ; preds = %72
  br label %105

105:                                              ; preds = %104
  %106 = load i32, i32* %4, align 4
  %107 = add nsw i32 %106, 1
  store i32 %107, i32* %4, align 4
  br label %65

108:                                              ; preds = %65
  store i32 1, i32* %7, align 4
  store i32 0, i32* %4, align 4
  br label %109

109:                                              ; preds = %128, %108
  %110 = load i32, i32* %4, align 4
  %111 = load i32, i32* %2, align 4
  %112 = icmp slt i32 %110, %111
  br i1 %112, label %113, label %131

113:                                              ; preds = %109
  %114 = load i32, i32* %4, align 4
  %115 = sext i32 %114 to i64
  %116 = getelementptr inbounds [500 x %struct.anon], [500 x %struct.anon]* @ngram, i64 0, i64 %115
  %117 = getelementptr inbounds %struct.anon, %struct.anon* %116, i32 0, i32 1
  %118 = load i32, i32* %117, align 4
  %119 = load i32, i32* %7, align 4
  %120 = icmp sgt i32 %118, %119
  br i1 %120, label %121, label %127

121:                                              ; preds = %113
  %122 = load i32, i32* %4, align 4
  %123 = sext i32 %122 to i64
  %124 = getelementptr inbounds [500 x %struct.anon], [500 x %struct.anon]* @ngram, i64 0, i64 %123
  %125 = getelementptr inbounds %struct.anon, %struct.anon* %124, i32 0, i32 1
  %126 = load i32, i32* %125, align 4
  store i32 %126, i32* %7, align 4
  br label %127

127:                                              ; preds = %121, %113
  br label %128

128:                                              ; preds = %127
  %129 = load i32, i32* %4, align 4
  %130 = add nsw i32 %129, 1
  store i32 %130, i32* %4, align 4
  br label %109

131:                                              ; preds = %109
  %132 = load i32, i32* %7, align 4
  %133 = icmp eq i32 %132, 1
  br i1 %133, label %134, label %136

134:                                              ; preds = %131
  %135 = call i32 (i8*, ...) @printf(i8* getelementptr inbounds ([3 x i8], [3 x i8]* @.str.2, i64 0, i64 0))
  br label %183

136:                                              ; preds = %131
  store i32 0, i32* %4, align 4
  br label %137

137:                                              ; preds = %145, %136
  %138 = load i32, i32* %4, align 4
  %139 = sext i32 %138 to i64
  %140 = getelementptr inbounds [500 x %struct.anon], [500 x %struct.anon]* @ngram, i64 0, i64 %139
  %141 = getelementptr inbounds %struct.anon, %struct.anon* %140, i32 0, i32 1
  %142 = load i32, i32* %141, align 4
  %143 = load i32, i32* %7, align 4
  %144 = icmp ne i32 %142, %143
  br i1 %144, label %145, label %148

145:                                              ; preds = %137
  %146 = load i32, i32* %4, align 4
  %147 = add nsw i32 %146, 1
  store i32 %147, i32* %4, align 4
  br label %137

148:                                              ; preds = %137
  %149 = load i32, i32* %7, align 4
  %150 = call i32 (i8*, ...) @printf(i8* getelementptr inbounds ([4 x i8], [4 x i8]* @.str.3, i64 0, i64 0), i32 %149)
  %151 = load i32, i32* %4, align 4
  %152 = sext i32 %151 to i64
  %153 = getelementptr inbounds [500 x %struct.anon], [500 x %struct.anon]* @ngram, i64 0, i64 %152
  %154 = getelementptr inbounds %struct.anon, %struct.anon* %153, i32 0, i32 0
  %155 = getelementptr inbounds [10 x i8], [10 x i8]* %154, i64 0, i64 0
  %156 = call i32 (i8*, ...) @printf(i8* getelementptr inbounds ([4 x i8], [4 x i8]* @.str.4, i64 0, i64 0), i8* %155)
  %157 = load i32, i32* %4, align 4
  %158 = add nsw i32 %157, 1
  store i32 %158, i32* %4, align 4
  br label %159

159:                                              ; preds = %179, %148
  %160 = load i32, i32* %4, align 4
  %161 = load i32, i32* %2, align 4
  %162 = icmp slt i32 %160, %161
  br i1 %162, label %163, label %182

163:                                              ; preds = %159
  %164 = load i32, i32* %4, align 4
  %165 = sext i32 %164 to i64
  %166 = getelementptr inbounds [500 x %struct.anon], [500 x %struct.anon]* @ngram, i64 0, i64 %165
  %167 = getelementptr inbounds %struct.anon, %struct.anon* %166, i32 0, i32 1
  %168 = load i32, i32* %167, align 4
  %169 = load i32, i32* %7, align 4
  %170 = icmp eq i32 %168, %169
  br i1 %170, label %171, label %178

171:                                              ; preds = %163
  %172 = load i32, i32* %4, align 4
  %173 = sext i32 %172 to i64
  %174 = getelementptr inbounds [500 x %struct.anon], [500 x %struct.anon]* @ngram, i64 0, i64 %173
  %175 = getelementptr inbounds %struct.anon, %struct.anon* %174, i32 0, i32 0
  %176 = getelementptr inbounds [10 x i8], [10 x i8]* %175, i64 0, i64 0
  %177 = call i32 (i8*, ...) @printf(i8* getelementptr inbounds ([4 x i8], [4 x i8]* @.str.4, i64 0, i64 0), i8* %176)
  br label %178

178:                                              ; preds = %171, %163
  br label %179

179:                                              ; preds = %178
  %180 = load i32, i32* %4, align 4
  %181 = add nsw i32 %180, 1
  store i32 %181, i32* %4, align 4
  br label %159

182:                                              ; preds = %159
  br label %183

183:                                              ; preds = %182, %134
  ret void
}

declare dso_local i32 @__isoc99_scanf(i8*, ...) #1

; Function Attrs: nounwind readonly
declare dso_local i64 @strlen(i8*) #2

; Function Attrs: nounwind readonly
declare dso_local i32 @strcmp(i8*, i8*) #2

declare dso_local i32 @printf(i8*, ...) #1


!llvm.module.flags = !{!0}
!llvm.ident = !{!1}

!0 = !{i32 1, !"wchar_size", i32 4}
!1 = !{!"clang version 10.0.0-4ubuntu1 "}
